; Function Attrs: mustprogress nounwind willreturn uwtable
define i32 @Gli_ManCreateCo(ptr noundef captures(none) %0, i32 noundef %1) local_unnamed_addr #3 {
  %3 = getelementptr inbounds nuw i8, ptr %0, i64 52
  %4 = load i32, ptr %3, align 4, !tbaa !33
  %5 = getelementptr i8, ptr %0, i64 64
  %.val.i = load ptr, ptr %5, align 8, !tbaa !21
  %6 = sext i32 %4 to i64
  %7 = getelementptr inbounds i32, ptr %.val.i, i64 %6
  %8 = getelementptr inbounds nuw i8, ptr %7, i64 4
  store i32 %4, ptr %8, align 4, !tbaa !23
  %9 = load i32, ptr %7, align 8
  %10 = and i32 %9, 15
  %11 = or disjoint i32 %10, 16
  store i32 %11, ptr %7, align 8
  %12 = load i32, ptr %3, align 4, !tbaa !33
  %13 = add nsw i32 %12, 9
  store i32 %13, ptr %3, align 4, !tbaa !33
  %14 = getelementptr inbounds nuw i8, ptr %0, i64 40
  %15 = load i32, ptr %14, align 8, !tbaa !34
  %16 = add nsw i32 %15, 1
  store i32 %16, ptr %14, align 8, !tbaa !34
  %17 = load i32, ptr %7, align 8
  %18 = or i32 %17, 1
  store i32 %18, ptr %7, align 8
  %.val = load ptr, ptr %5, align 8, !tbaa !21
  %19 = sext i32 %1 to i64
  %20 = getelementptr inbounds i32, ptr %.val, i64 %19
  %21 = getelementptr inbounds nuw i8, ptr %20, i64 4
  %22 = load i32, ptr %21, align 4, !tbaa !23
  %23 = sub i32 %4, %22
  %24 = getelementptr inbounds nuw i8, ptr %7, i64 28
  %25 = getelementptr inbounds nuw i8, ptr %7, i64 20
  %26 = load i32, ptr %25, align 4, !tbaa !31
  %27 = add nsw i32 %26, 1
  store i32 %27, ptr %25, align 4, !tbaa !31
  %28 = sext i32 %26 to i64
  %29 = getelementptr inbounds [0 x i32], ptr %24, i64 0, i64 %28
  store i32 %23, ptr %29, align 4, !tbaa !26
  %30 = getelementptr inbounds nuw i8, ptr %20, i64 28
  %31 = load i32, ptr %20, align 8
  %32 = lshr i32 %31, 4
  %33 = and i32 %32, 7
  %34 = getelementptr inbounds nuw i8, ptr %20, i64 24
  %35 = load i32, ptr %34, align 8, !tbaa !31
  %36 = add nsw i32 %35, 1
  store i32 %36, ptr %34, align 8, !tbaa !31
  %37 = add nsw i32 %33, %35
  %38 = sext i32 %37 to i64
  %39 = getelementptr inbounds [0 x i32], ptr %30, i64 0, i64 %38
  store i32 %23, ptr %39, align 4, !tbaa !26
  %40 = load i32, ptr %20, align 8
  %41 = lshr i32 %40, 1
  %42 = and i32 %41, 1
  %43 = load i32, ptr %7, align 8
  %44 = shl nuw nsw i32 %42, 2
  %45 = and i32 %43, -7
  %46 = or disjoint i32 %44, %45
  %47 = shl nuw nsw i32 %42, 1
  %48 = or disjoint i32 %46, %47
  store i32 %48, ptr %7, align 8
  %49 = getelementptr inbounds nuw i8, ptr %0, i64 8
  %50 = load ptr, ptr %49, align 8, !tbaa !16
  %51 = load i32, ptr %8, align 4, !tbaa !23
  %52 = getelementptr inbounds nuw i8, ptr %50, i64 4
  %53 = load i32, ptr %52, align 4, !tbaa !11
  %54 = load i32, ptr %50, align 8, !tbaa !13
  %55 = icmp eq i32 %53, %54
  br i1 %55, label %56, label %.Vec_IntGrow.exit10_crit_edge.i

.Vec_IntGrow.exit10_crit_edge.i:                  ; preds = %2
  %.phi.trans.insert.i = getelementptr inbounds nuw i8, ptr %50, i64 8
  %.pre.i = load ptr, ptr %.phi.trans.insert.i, align 8, !tbaa !14
  br label %Vec_IntPush.exit

56:                                               ; preds = %2
  %57 = icmp slt i32 %53, 16
  br i1 %57, label %58, label %66

58:                                               ; preds = %56
  %59 = getelementptr inbounds nuw i8, ptr %50, i64 8
  %60 = load ptr, ptr %59, align 8, !tbaa !14
  %.not9.i.i = icmp eq ptr %60, null
  br i1 %.not9.i.i, label %63, label %61

61:                                               ; preds = %58
  %62 = tail call dereferenceable_or_null(64) ptr @realloc(ptr noundef nonnull %60, i64 noundef 64) #25
  br label %Vec_IntGrow.exit.i

63:                                               ; preds = %58
  %64 = tail call noalias dereferenceable_or_null(64) ptr @malloc(i64 noundef 64) #23
  br label %Vec_IntGrow.exit.i

Vec_IntGrow.exit.i:                               ; preds = %63, %61
  %65 = phi ptr [ %62, %61 ], [ %64, %63 ]
  store ptr %65, ptr %59, align 8, !tbaa !14
  store i32 16, ptr %50, align 8, !tbaa !13
  br label %Vec_IntPush.exit

66:                                               ; preds = %56
  %67 = shl nuw nsw i32 %53, 1
  %68 = getelementptr inbounds nuw i8, ptr %50, i64 8
  %69 = load ptr, ptr %68, align 8, !tbaa !14
  %.not9.i9.i = icmp eq ptr %69, null
  %70 = zext nneg i32 %67 to i64
  %71 = shl nuw nsw i64 %70, 2
  br i1 %.not9.i9.i, label %74, label %72

72:                                               ; preds = %66
  %73 = tail call ptr @realloc(ptr noundef nonnull %69, i64 noundef %71) #25
  br label %76

74:                                               ; preds = %66
  %75 = tail call noalias ptr @malloc(i64 noundef %71) #23
  br label %76

76:                                               ; preds = %74, %72
  %77 = phi ptr [ %73, %72 ], [ %75, %74 ]
  store ptr %77, ptr %68, align 8, !tbaa !14
  store i32 %67, ptr %50, align 8, !tbaa !13
  br label %Vec_IntPush.exit

Vec_IntPush.exit:                                 ; preds = %.Vec_IntGrow.exit10_crit_edge.i, %Vec_IntGrow.exit.i, %76
  %78 = phi ptr [ %.pre.i, %.Vec_IntGrow.exit10_crit_edge.i ], [ %77, %76 ], [ %65, %Vec_IntGrow.exit.i ]
  %79 = load i32, ptr %52, align 4, !tbaa !11
  %80 = add nsw i32 %79, 1
  store i32 %80, ptr %52, align 4, !tbaa !11
  %81 = sext i32 %79 to i64
  %82 = getelementptr inbounds i32, ptr %78, i64 %81
  store i32 %51, ptr %82, align 4, !tbaa !26
  %83 = load i32, ptr %8, align 4, !tbaa !23
  ret i32 %83
}